target datalayout = "e-m:e-p270:32:32-p271:32:32-p272:64:64-i64:64-i128:128-f80:128-n8:16:32:64-S128"
target triple = "x86_64-unknown-linux-gnu"

%struct.llama_context = type { %struct.llama_cparams, ptr, %struct.llama_kv_cache, %"class.std::mersenne_twister_engine", i8, i64, i64, i64, i64, i64, i32, i32, i32, %"class.std::vector.107", i8, %"class.std::vector.107", %"class.std::vector.112", %struct.llama_buffer, %struct.llama_buffer, ptr }
%struct.llama_cparams = type { i32, i32, i32, i32, float, float, i32, float, float, float, float, i8, i8 }
%struct.llama_kv_cache = type { i8, i32, i32, i32, i32, %"class.std::vector.97", %"class.std::vector.102", %"class.std::vector.102", ptr, %struct.llama_buffer }
%"class.std::vector.97" = type { %"struct.std::_Vector_base.98" }
%"struct.std::_Vector_base.98" = type { %"struct.std::_Vector_base<llama_kv_cell, std::allocator<llama_kv_cell>>::_Vector_impl" }
%"struct.std::_Vector_base<llama_kv_cell, std::allocator<llama_kv_cell>>::_Vector_impl" = type { %"struct.std::_Vector_base<llama_kv_cell, std::allocator<llama_kv_cell>>::_Vector_impl_data" }
%"struct.std::_Vector_base<llama_kv_cell, std::allocator<llama_kv_cell>>::_Vector_impl_data" = type { ptr, ptr, ptr }
%"class.std::vector.102" = type { %"struct.std::_Vector_base.103" }
%"struct.std::_Vector_base.103" = type { %"struct.std::_Vector_base<ggml_tensor *, std::allocator<ggml_tensor *>>::_Vector_impl" }
%"struct.std::_Vector_base<ggml_tensor *, std::allocator<ggml_tensor *>>::_Vector_impl" = type { %"struct.std::_Vector_base<ggml_tensor *, std::allocator<ggml_tensor *>>::_Vector_impl_data" }
%"struct.std::_Vector_base<ggml_tensor *, std::allocator<ggml_tensor *>>::_Vector_impl_data" = type { ptr, ptr, ptr }
%"class.std::mersenne_twister_engine" = type { [624 x i64], i64 }
%"class.std::vector.107" = type { %"struct.std::_Vector_base.108" }
%"struct.std::_Vector_base.108" = type { %"struct.std::_Vector_base<float, std::allocator<float>>::_Vector_impl" }
%"struct.std::_Vector_base<float, std::allocator<float>>::_Vector_impl" = type { %"struct.std::_Vector_base<float, std::allocator<float>>::_Vector_impl_data" }
%"struct.std::_Vector_base<float, std::allocator<float>>::_Vector_impl_data" = type { ptr, ptr, ptr }
%"class.std::vector.112" = type { %"struct.std::_Vector_base.113" }
%"struct.std::_Vector_base.113" = type { %"struct.std::_Vector_base<unsigned char, std::allocator<unsigned char>>::_Vector_impl" }
%"struct.std::_Vector_base<unsigned char, std::allocator<unsigned char>>::_Vector_impl" = type { %"struct.std::_Vector_base<unsigned char, std::allocator<unsigned char>>::_Vector_impl_data" }
%"struct.std::_Vector_base<unsigned char, std::allocator<unsigned char>>::_Vector_impl_data" = type { ptr, ptr, ptr }
%struct.llama_buffer = type <{ ptr, i64, i8, [7 x i8] }>
%struct.llama_token_data_array = type { ptr, i64, i8 }
%struct.llama_token_data = type { i32, float, float }

; Function Attrs: mustprogress uwtable
define void @llama_sample_temp(ptr noundef %ctx, ptr noundef %candidates_p, float noundef %temp) #2 {
entry:
  %ctx.addr = alloca ptr, align 8
  %candidates_p.addr = alloca ptr, align 8
  %temp.addr = alloca float, align 4
  %t_start_sample_us = alloca i64, align 8
  %i = alloca i64, align 8
  store ptr %ctx, ptr %ctx.addr, align 8
  store ptr %candidates_p, ptr %candidates_p.addr, align 8
  store float %temp, ptr %temp.addr, align 4
  %call = call i64 @ggml_time_us()
  store i64 %call, ptr %t_start_sample_us, align 8
  store i64 0, ptr %i, align 8
  br label %for.cond

for.cond:                                         ; preds = %for.inc, %entry
  %0 = load i64, ptr %i, align 8
  %1 = load ptr, ptr %candidates_p.addr, align 8
  %size = getelementptr inbounds %struct.llama_token_data_array, ptr %1, i32 0, i32 1
  %2 = load i64, ptr %size, align 8
  %cmp = icmp ult i64 %0, %2
  br i1 %cmp, label %for.body, label %for.end

for.body:                                         ; preds = %for.cond
  %3 = load float, ptr %temp.addr, align 4
  %4 = load ptr, ptr %candidates_p.addr, align 8
  %data = getelementptr inbounds %struct.llama_token_data_array, ptr %4, i32 0, i32 0
  %5 = load ptr, ptr %data, align 8
  %6 = load i64, ptr %i, align 8
  %arrayidx = getelementptr inbounds %struct.llama_token_data, ptr %5, i64 %6
  %logit = getelementptr inbounds %struct.llama_token_data, ptr %arrayidx, i32 0, i32 1
  %7 = load float, ptr %logit, align 4
  %div = fdiv float %7, %3
  store float %div, ptr %logit, align 4
  br label %for.inc

for.inc:                                          ; preds = %for.body
  %8 = load i64, ptr %i, align 8
  %inc = add i64 %8, 1
  store i64 %inc, ptr %i, align 8
  br label %for.cond, !llvm.loop !30

for.end:                                          ; preds = %for.cond
  %9 = load ptr, ptr %ctx.addr, align 8
  %tobool = icmp ne ptr %9, null
  br i1 %tobool, label %if.then, label %if.end

if.then:                                          ; preds = %for.end
  %call1 = call i64 @ggml_time_us()
  %10 = load i64, ptr %t_start_sample_us, align 8
  %sub = sub nsw i64 %call1, %10
  %11 = load ptr, ptr %ctx.addr, align 8
  %t_sample_us = getelementptr inbounds %struct.llama_context, ptr %11, i32 0, i32 7
  %12 = load i64, ptr %t_sample_us, align 8
  %add = add nsw i64 %12, %sub
  store i64 %add, ptr %t_sample_us, align 8
  br label %if.end

if.end:                                           ; preds = %if.then, %for.end
  ret void
}