; Function Attrs: mustprogress uwtable
define void @llama_sample_temp(ptr noundef %ctx, ptr nocapture noundef readonly %candidates_p, float noundef %temp) local_unnamed_addr #2 {
entry:
  %call = tail call i64 @ggml_time_us()
  %size = getelementptr inbounds i8, ptr %candidates_p, i64 8
  %0 = load i64, ptr %size, align 8
  %cmp5.not = icmp eq i64 %0, 0
  br i1 %cmp5.not, label %for.end, label %for.body

for.body:                                         ; preds = %entry, %for.body
  %i.06 = phi i64 [ %inc, %for.body ], [ 0, %entry ]
  %1 = load ptr, ptr %candidates_p, align 8
  %logit = getelementptr inbounds %struct.llama_token_data, ptr %1, i64 %i.06, i32 1
  %2 = load float, ptr %logit, align 4
  %div = fdiv float %2, %temp
  store float %div, ptr %logit, align 4
  %inc = add nuw i64 %i.06, 1
  %3 = load i64, ptr %size, align 8
  %cmp = icmp ult i64 %inc, %3
  br i1 %cmp, label %for.body, label %for.end, !llvm.loop !53

for.end:                                          ; preds = %for.body, %entry
  %tobool.not = icmp eq ptr %ctx, null
  br i1 %tobool.not, label %if.end, label %if.then

if.then:                                          ; preds = %for.end
  %call1 = tail call i64 @ggml_time_us()
  %sub = sub i64 %call1, %call
  %t_sample_us = getelementptr inbounds i8, ptr %ctx, i64 5208
  %4 = load i64, ptr %t_sample_us, align 8
  %add = add nsw i64 %sub, %4
  store i64 %add, ptr %t_sample_us, align 8
  br label %if.end

if.end:                                           ; preds = %if.then, %for.end
  ret void
}